target datalayout = "e-m:e-p270:32:32-p271:32:32-p272:64:64-i64:64-i128:128-f80:128-n8:16:32:64-S128"
target triple = "x86_64-pc-linux-gnu"

%struct.H5HF_free_section_t = type { %struct.H5FS_section_info_t, %union.anon }
%struct.H5FS_section_info_t = type { i64, i64, i32, i32 }
%union.anon = type { %struct.anon.1 }
%struct.anon.1 = type { %union.anon.2, i32, i32, i32, ptr, i32, i64, i32, i32, i32, ptr, i32, ptr }
%union.anon.2 = type { ptr }
%struct.H5HF_hdr_t = type { %struct.H5C_cache_entry_t, i32, i32, i8, i8, i8, i8, %struct.H5HF_dtable_t, i64, i64, i32, i64, i64, %struct.H5O_pline_t, i64, i32, i64, i64, i64, i64, i64, i64, i64, i64, i64, i64, i64, i32, ptr, i64, i8, i8, i8, ptr, i32, ptr, %struct.H5HF_block_iter_t, ptr, i64, i8, i8, i64, i8, i8, i8, i8 }
%struct.H5C_cache_entry_t = type { ptr, i64, i64, ptr, i8, ptr, i8, i8, i8, i8, i32, i8, i8, i8, i8, i8, i32, ptr, i32, i32, i32, i32, i32, i8, i8, ptr, ptr, ptr, ptr, ptr, ptr, i8, i32, i8, i64, ptr, i64, i64, i32, i8, i32, i32, i8, ptr, ptr, ptr }
%struct.H5HF_dtable_t = type { %struct.H5HF_dtable_cparam_t, i64, i32, i32, i32, i32, i32, i32, i32, i64, ptr, ptr, ptr, ptr }
%struct.H5HF_dtable_cparam_t = type { i32, i64, i64, i32, i32 }
%struct.H5O_pline_t = type { %struct.H5O_shared_t, i32, i64, i64, ptr }
%struct.H5O_shared_t = type { i32, ptr, i32, %union.anon.3 }
%union.anon.3 = type { %struct.H5O_mesg_loc_t }
%struct.H5O_mesg_loc_t = type { i32, i64 }
%struct.H5HF_block_iter_t = type { i8, ptr }
%struct.H5HF_indirect_t = type { %struct.H5C_cache_entry_t, i64, ptr, ptr, ptr, i32, i64, i64, i32, i32, i32, i32, ptr, i8, i64, ptr, ptr }

@H5HF_init_g = external global i8, align 1
@H5_libterm_g = external global i8, align 1
@.str = private unnamed_addr constant [105 x i8] c"generated/home/dtcxzyw/WorkSpace/Projects/compilers/llvm-opt-benchmark/bench/hdf5/hdf5/src/H5HFsection.c\00", align 1
@H5E_RESOURCE_g = external global i64, align 8
@H5E_NOSPACE_g = external global i64, align 8
@H5E_HEAP_g = external global i64, align 8
@H5E_CANTINC_g = external global i64, align 8
@.str.2 = private unnamed_addr constant [57 x i8] c"can't increment reference count on shared indirect block\00", align 1
@__func__.H5FS__sect_node_new = private unnamed_addr constant [20 x i8] c"H5FS__sect_node_new\00", align 1
@.str.16 = private unnamed_addr constant [60 x i8] c"memory allocation failed for direct block free list section\00", align 1
@H5_H5HF_free_section_t_reg_free_list = internal global { i8, [3 x i8], i32, i32, [4 x i8], ptr, i64, ptr } { i8 0, [3 x i8] zeroinitializer, i32 0, i32 0, [4 x i8] zeroinitializer, ptr @.str.17, i64 112, ptr null }, align 8
@__func__.H5HF__sect_indirect_new = private unnamed_addr constant [24 x i8] c"H5HF__sect_indirect_new\00", align 1
@.str.61 = private unnamed_addr constant [46 x i8] c"memory allocation failed for indirect section\00", align 1

; Function Attrs: nounwind uwtable
define internal ptr @H5FS__sect_node_new(i32 noundef %0, i64 noundef %1, i64 noundef %2, i32 noundef %3) #0 {
  %5 = alloca i32, align 4
  %6 = alloca i64, align 8
  %7 = alloca i64, align 8
  %8 = alloca i32, align 4
  %9 = alloca ptr, align 8
  %10 = alloca ptr, align 8
  %11 = alloca i8, align 1
  store i32 %0, ptr %5, align 4, !tbaa !11
  store i64 %1, ptr %6, align 8, !tbaa !25
  store i64 %2, ptr %7, align 8, !tbaa !25
  store i32 %3, ptr %8, align 4, !tbaa !11
  call void @llvm.lifetime.start.p0(i64 8, ptr %9) #7
  call void @llvm.lifetime.start.p0(i64 8, ptr %10) #7
  store ptr null, ptr %10, align 8, !tbaa !23
  call void @llvm.lifetime.start.p0(i64 1, ptr %11) #7
  store i8 0, ptr %11, align 1, !tbaa !13
  %12 = load i8, ptr @H5HF_init_g, align 1, !tbaa !13, !range !15, !noundef !16
  %13 = trunc i8 %12 to i1
  br i1 %13, label %18, label %14

14:                                               ; preds = %4
  %15 = load i8, ptr @H5_libterm_g, align 1, !tbaa !13, !range !15, !noundef !16
  %16 = trunc i8 %15 to i1
  %17 = xor i1 %16, true
  br label %18

18:                                               ; preds = %14, %4
  %19 = phi i1 [ true, %4 ], [ %17, %14 ]
  %20 = xor i1 %19, true
  %21 = xor i1 %20, true
  %22 = zext i1 %21 to i32
  %23 = sext i32 %22 to i64
  %24 = call i64 @llvm.expect.i64(i64 %23, i64 1)
  %25 = icmp ne i64 %24, 0
  br i1 %25, label %26, label %67

26:                                               ; preds = %18
  %27 = call noalias ptr @H5FL_reg_malloc(ptr noundef @H5_H5HF_free_section_t_reg_free_list)
  store ptr %27, ptr %9, align 8, !tbaa !23
  %28 = icmp eq ptr null, %27
  br i1 %28, label %29, label %48

29:                                               ; preds = %26
  br label %30

30:                                               ; preds = %29
  br label %31

31:                                               ; preds = %30
  br label %32

32:                                               ; preds = %31
  %33 = load i64, ptr @H5E_RESOURCE_g, align 8, !tbaa !25
  %34 = load i64, ptr @H5E_NOSPACE_g, align 8, !tbaa !25
  %35 = call i32 (ptr, ptr, i32, i64, i64, ptr, ...) @H5E_printf_stack(ptr noundef @.str, ptr noundef @__func__.H5FS__sect_node_new, i32 noundef 372, i64 noundef %33, i64 noundef %34, ptr noundef @.str.16)
  br label %36

36:                                               ; preds = %32
  br label %37

37:                                               ; preds = %36
  store i8 1, ptr %11, align 1, !tbaa !13
  %38 = load i8, ptr %11, align 1, !tbaa !13, !range !15, !noundef !16
  %39 = trunc i8 %38 to i1
  %40 = zext i1 %39 to i8
  store i8 %40, ptr %11, align 1, !tbaa !13
  br label %41

41:                                               ; preds = %37
  br label %42

42:                                               ; preds = %41
  br label %43

43:                                               ; preds = %42
  store ptr null, ptr %10, align 8, !tbaa !23
  br label %66

44:                                               ; No predecessors!
  br label %45

45:                                               ; preds = %44
  br label %46

46:                                               ; preds = %45
  br label %47

47:                                               ; preds = %46
  br label %48

48:                                               ; preds = %47, %26
  %49 = load i64, ptr %6, align 8, !tbaa !25
  %50 = load ptr, ptr %9, align 8, !tbaa !23
  %51 = getelementptr inbounds nuw %struct.H5HF_free_section_t, ptr %50, i32 0, i32 0
  %52 = getelementptr inbounds nuw %struct.H5FS_section_info_t, ptr %51, i32 0, i32 0
  store i64 %49, ptr %52, align 8, !tbaa !36
  %53 = load i64, ptr %7, align 8, !tbaa !25
  %54 = load ptr, ptr %9, align 8, !tbaa !23
  %55 = getelementptr inbounds nuw %struct.H5HF_free_section_t, ptr %54, i32 0, i32 0
  %56 = getelementptr inbounds nuw %struct.H5FS_section_info_t, ptr %55, i32 0, i32 1
  store i64 %53, ptr %56, align 8, !tbaa !37
  %57 = load i32, ptr %5, align 4, !tbaa !11
  %58 = load ptr, ptr %9, align 8, !tbaa !23
  %59 = getelementptr inbounds nuw %struct.H5HF_free_section_t, ptr %58, i32 0, i32 0
  %60 = getelementptr inbounds nuw %struct.H5FS_section_info_t, ptr %59, i32 0, i32 2
  store i32 %57, ptr %60, align 8, !tbaa !27
  %61 = load i32, ptr %8, align 4, !tbaa !11
  %62 = load ptr, ptr %9, align 8, !tbaa !23
  %63 = getelementptr inbounds nuw %struct.H5HF_free_section_t, ptr %62, i32 0, i32 0
  %64 = getelementptr inbounds nuw %struct.H5FS_section_info_t, ptr %63, i32 0, i32 3
  store i32 %61, ptr %64, align 4, !tbaa !38
  %65 = load ptr, ptr %9, align 8, !tbaa !23
  store ptr %65, ptr %10, align 8, !tbaa !23
  br label %66

66:                                               ; preds = %48, %43
  br label %67

67:                                               ; preds = %66, %18
  %68 = load ptr, ptr %10, align 8, !tbaa !23
  call void @llvm.lifetime.end.p0(i64 1, ptr %11) #7
  call void @llvm.lifetime.end.p0(i64 8, ptr %10) #7
  call void @llvm.lifetime.end.p0(i64 8, ptr %9) #7
  ret ptr %68
}

; Function Attrs: nounwind uwtable
define internal ptr @H5HF__sect_indirect_new(ptr noundef %0, i64 noundef %1, i64 noundef %2, ptr noundef %3, i64 noundef %4, i32 noundef %5, i32 noundef %6, i32 noundef %7) #0 {
  %9 = alloca ptr, align 8
  %10 = alloca i64, align 8
  %11 = alloca i64, align 8
  %12 = alloca ptr, align 8
  %13 = alloca i64, align 8
  %14 = alloca i32, align 4
  %15 = alloca i32, align 4
  %16 = alloca i32, align 4
  %17 = alloca ptr, align 8
  %18 = alloca ptr, align 8
  %19 = alloca i8, align 1
  store ptr %0, ptr %9, align 8, !tbaa !22
  store i64 %1, ptr %10, align 8, !tbaa !25
  store i64 %2, ptr %11, align 8, !tbaa !25
  store ptr %3, ptr %12, align 8, !tbaa !66
  store i64 %4, ptr %13, align 8, !tbaa !25
  store i32 %5, ptr %14, align 4, !tbaa !11
  store i32 %6, ptr %15, align 4, !tbaa !11
  store i32 %7, ptr %16, align 4, !tbaa !11
  call void @llvm.lifetime.start.p0(i64 8, ptr %17) #7
  store ptr null, ptr %17, align 8, !tbaa !23
  call void @llvm.lifetime.start.p0(i64 8, ptr %18) #7
  store ptr null, ptr %18, align 8, !tbaa !23
  call void @llvm.lifetime.start.p0(i64 1, ptr %19) #7
  store i8 0, ptr %19, align 1, !tbaa !13
  %20 = load i8, ptr @H5HF_init_g, align 1, !tbaa !13, !range !15, !noundef !16
  %21 = trunc i8 %20 to i1
  br i1 %21, label %26, label %22

22:                                               ; preds = %8
  %23 = load i8, ptr @H5_libterm_g, align 1, !tbaa !13, !range !15, !noundef !16
  %24 = trunc i8 %23 to i1
  %25 = xor i1 %24, true
  br label %26

26:                                               ; preds = %22, %8
  %27 = phi i1 [ true, %8 ], [ %25, %22 ]
  %28 = xor i1 %27, true
  %29 = xor i1 %28, true
  %30 = zext i1 %29 to i32
  %31 = sext i32 %30 to i64
  %32 = call i64 @llvm.expect.i64(i64 %31, i64 1)
  %33 = icmp ne i64 %32, 0
  br i1 %33, label %34, label %157

34:                                               ; preds = %26
  %35 = load i64, ptr %10, align 8, !tbaa !25
  %36 = load i64, ptr %11, align 8, !tbaa !25
  %37 = load ptr, ptr %12, align 8, !tbaa !66
  %38 = icmp ne ptr %37, null
  %39 = select i1 %38, i32 0, i32 1
  %40 = call ptr @H5FS__sect_node_new(i32 noundef 3, i64 noundef %35, i64 noundef %36, i32 noundef %39)
  store ptr %40, ptr %17, align 8, !tbaa !23
  %41 = icmp eq ptr null, %40
  br i1 %41, label %42, label %61

42:                                               ; preds = %34
  br label %43

43:                                               ; preds = %42
  br label %44

44:                                               ; preds = %43
  br label %45

45:                                               ; preds = %44
  %46 = load i64, ptr @H5E_RESOURCE_g, align 8, !tbaa !25
  %47 = load i64, ptr @H5E_NOSPACE_g, align 8, !tbaa !25
  %48 = call i32 (ptr, ptr, i32, i64, i64, ptr, ...) @H5E_printf_stack(ptr noundef @.str, ptr noundef @__func__.H5HF__sect_indirect_new, i32 noundef 2097, i64 noundef %46, i64 noundef %47, ptr noundef @.str.61)
  br label %49

49:                                               ; preds = %45
  br label %50

50:                                               ; preds = %49
  store i8 1, ptr %19, align 1, !tbaa !13
  %51 = load i8, ptr %19, align 1, !tbaa !13, !range !15, !noundef !16
  %52 = trunc i8 %51 to i1
  %53 = zext i1 %52 to i8
  store i8 %53, ptr %19, align 1, !tbaa !13
  br label %54

54:                                               ; preds = %50
  br label %55

55:                                               ; preds = %54
  br label %56

56:                                               ; preds = %55
  store ptr null, ptr %18, align 8, !tbaa !23
  br label %147

57:                                               ; No predecessors!
  br label %58

58:                                               ; preds = %57
  br label %59

59:                                               ; preds = %58
  br label %60

60:                                               ; preds = %59
  br label %61

61:                                               ; preds = %60, %34
  %62 = load ptr, ptr %12, align 8, !tbaa !66
  %63 = icmp ne ptr %62, null
  br i1 %63, label %64, label %110

64:                                               ; preds = %61
  %65 = load ptr, ptr %12, align 8, !tbaa !66
  %66 = load ptr, ptr %17, align 8, !tbaa !23
  %67 = getelementptr inbounds nuw %struct.H5HF_free_section_t, ptr %66, i32 0, i32 1
  %68 = getelementptr inbounds nuw %struct.anon.1, ptr %67, i32 0, i32 0
  store ptr %65, ptr %68, align 8, !tbaa !63
  %69 = load ptr, ptr %9, align 8, !tbaa !22
  %70 = getelementptr inbounds nuw %struct.H5HF_hdr_t, ptr %69, i32 0, i32 7
  %71 = getelementptr inbounds nuw %struct.H5HF_dtable_t, ptr %70, i32 0, i32 0
  %72 = getelementptr inbounds nuw %struct.H5HF_dtable_cparam_t, ptr %71, i32 0, i32 0
  %73 = load i32, ptr %72, align 8, !tbaa !86
  %74 = load ptr, ptr %17, align 8, !tbaa !23
  %75 = getelementptr inbounds nuw %struct.H5HF_free_section_t, ptr %74, i32 0, i32 1
  %76 = getelementptr inbounds nuw %struct.anon.1, ptr %75, i32 0, i32 0
  %77 = load ptr, ptr %76, align 8, !tbaa !63
  %78 = getelementptr inbounds nuw %struct.H5HF_indirect_t, ptr %77, i32 0, i32 9
  %79 = load i32, ptr %78, align 4, !tbaa !95
  %80 = mul i32 %73, %79
  %81 = load ptr, ptr %17, align 8, !tbaa !23
  %82 = getelementptr inbounds nuw %struct.H5HF_free_section_t, ptr %81, i32 0, i32 1
  %83 = getelementptr inbounds nuw %struct.anon.1, ptr %82, i32 0, i32 7
  store i32 %80, ptr %83, align 8, !tbaa !63
  %84 = load ptr, ptr %17, align 8, !tbaa !23
  %85 = getelementptr inbounds nuw %struct.H5HF_free_section_t, ptr %84, i32 0, i32 1
  %86 = getelementptr inbounds nuw %struct.anon.1, ptr %85, i32 0, i32 0
  %87 = load ptr, ptr %86, align 8, !tbaa !63
  %88 = call i32 @H5HF__iblock_incr(ptr noundef %87)
  %89 = icmp slt i32 %88, 0
  br i1 %89, label %90, label %109

90:                                               ; preds = %64
  br label %91

91:                                               ; preds = %90
  br label %92

92:                                               ; preds = %91
  br label %93

93:                                               ; preds = %92
  %94 = load i64, ptr @H5E_HEAP_g, align 8, !tbaa !25
  %95 = load i64, ptr @H5E_CANTINC_g, align 8, !tbaa !25
  %96 = call i32 (ptr, ptr, i32, i64, i64, ptr, ...) @H5E_printf_stack(ptr noundef @.str, ptr noundef @__func__.H5HF__sect_indirect_new, i32 noundef 2105, i64 noundef %94, i64 noundef %95, ptr noundef @.str.2)
  br label %97

97:                                               ; preds = %93
  br label %98

98:                                               ; preds = %97
  store i8 1, ptr %19, align 1, !tbaa !13
  %99 = load i8, ptr %19, align 1, !tbaa !13, !range !15, !noundef !16
  %100 = trunc i8 %99 to i1
  %101 = zext i1 %100 to i8
  store i8 %101, ptr %19, align 1, !tbaa !13
  br label %102

102:                                              ; preds = %98
  br label %103

103:                                              ; preds = %102
  br label %104

104:                                              ; preds = %103
  store ptr null, ptr %18, align 8, !tbaa !23
  br label %147

105:                                              ; No predecessors!
  br label %106

106:                                              ; preds = %105
  br label %107

107:                                              ; preds = %106
  br label %108

108:                                              ; preds = %107
  br label %109

109:                                              ; preds = %108, %64
  br label %118

110:                                              ; preds = %61
  %111 = load i64, ptr %13, align 8, !tbaa !25
  %112 = load ptr, ptr %17, align 8, !tbaa !23
  %113 = getelementptr inbounds nuw %struct.H5HF_free_section_t, ptr %112, i32 0, i32 1
  %114 = getelementptr inbounds nuw %struct.anon.1, ptr %113, i32 0, i32 0
  store i64 %111, ptr %114, align 8, !tbaa !63
  %115 = load ptr, ptr %17, align 8, !tbaa !23
  %116 = getelementptr inbounds nuw %struct.H5HF_free_section_t, ptr %115, i32 0, i32 1
  %117 = getelementptr inbounds nuw %struct.anon.1, ptr %116, i32 0, i32 7
  store i32 0, ptr %117, align 8, !tbaa !63
  br label %118

118:                                              ; preds = %110, %109
  %119 = load i32, ptr %14, align 4, !tbaa !11
  %120 = load ptr, ptr %17, align 8, !tbaa !23
  %121 = getelementptr inbounds nuw %struct.H5HF_free_section_t, ptr %120, i32 0, i32 1
  %122 = getelementptr inbounds nuw %struct.anon.1, ptr %121, i32 0, i32 1
  store i32 %119, ptr %122, align 8, !tbaa !63
  %123 = load i32, ptr %15, align 4, !tbaa !11
  %124 = load ptr, ptr %17, align 8, !tbaa !23
  %125 = getelementptr inbounds nuw %struct.H5HF_free_section_t, ptr %124, i32 0, i32 1
  %126 = getelementptr inbounds nuw %struct.anon.1, ptr %125, i32 0, i32 2
  store i32 %123, ptr %126, align 4, !tbaa !63
  %127 = load i32, ptr %16, align 4, !tbaa !11
  %128 = load ptr, ptr %17, align 8, !tbaa !23
  %129 = getelementptr inbounds nuw %struct.H5HF_free_section_t, ptr %128, i32 0, i32 1
  %130 = getelementptr inbounds nuw %struct.anon.1, ptr %129, i32 0, i32 3
  store i32 %127, ptr %130, align 8, !tbaa !63
  %131 = load ptr, ptr %9, align 8, !tbaa !22
  %132 = getelementptr inbounds nuw %struct.H5HF_hdr_t, ptr %131, i32 0, i32 7
  %133 = load i32, ptr %14, align 4, !tbaa !11
  %134 = load i32, ptr %15, align 4, !tbaa !11
  %135 = load i32, ptr %16, align 4, !tbaa !11
  %136 = call i64 @H5HF__dtable_span_size(ptr noundef %132, i32 noundef %133, i32 noundef %134, i32 noundef %135)
  %137 = load ptr, ptr %17, align 8, !tbaa !23
  %138 = getelementptr inbounds nuw %struct.H5HF_free_section_t, ptr %137, i32 0, i32 1
  %139 = getelementptr inbounds nuw %struct.anon.1, ptr %138, i32 0, i32 6
  store i64 %136, ptr %139, align 8, !tbaa !63
  %140 = load ptr, ptr %17, align 8, !tbaa !23
  %141 = getelementptr inbounds nuw %struct.H5HF_free_section_t, ptr %140, i32 0, i32 1
  %142 = getelementptr inbounds nuw %struct.anon.1, ptr %141, i32 0, i32 4
  store ptr null, ptr %142, align 8, !tbaa !63
  %143 = load ptr, ptr %17, align 8, !tbaa !23
  %144 = getelementptr inbounds nuw %struct.H5HF_free_section_t, ptr %143, i32 0, i32 1
  %145 = getelementptr inbounds nuw %struct.anon.1, ptr %144, i32 0, i32 5
  store i32 0, ptr %145, align 8, !tbaa !63
  %146 = load ptr, ptr %17, align 8, !tbaa !23
  store ptr %146, ptr %18, align 8, !tbaa !23
  br label %147

147:                                              ; preds = %118, %104, %56
  %148 = load ptr, ptr %18, align 8, !tbaa !23
  %149 = icmp ne ptr %148, null
  br i1 %149, label %156, label %150

150:                                              ; preds = %147
  %151 = load ptr, ptr %17, align 8, !tbaa !23
  %152 = icmp ne ptr %151, null
  br i1 %152, label %153, label %156

153:                                              ; preds = %150
  %154 = load ptr, ptr %17, align 8, !tbaa !23
  %155 = call ptr @H5FL_reg_free(ptr noundef @H5_H5HF_free_section_t_reg_free_list, ptr noundef %154)
  store ptr %155, ptr %17, align 8, !tbaa !23
  br label %156

156:                                              ; preds = %153, %150, %147
  br label %157

157:                                              ; preds = %156, %26
  %158 = load ptr, ptr %18, align 8, !tbaa !23
  call void @llvm.lifetime.end.p0(i64 1, ptr %19) #7
  call void @llvm.lifetime.end.p0(i64 8, ptr %18) #7
  call void @llvm.lifetime.end.p0(i64 8, ptr %17) #7
  ret ptr %158
}