; Function Attrs: nounwind uwtable
define internal fastcc ptr @H5HF__sect_indirect_new(ptr noundef %0, i64 noundef %1, i64 noundef %2, ptr noundef %3, i64 noundef %4, i32 noundef %5, i32 noundef %6, i32 noundef %7) unnamed_addr #0 {
  %9 = load i8, ptr @H5HF_init_g, align 1, !tbaa !3, !range !7, !noundef !8
  %10 = trunc nuw i8 %9 to i1
  %11 = load i8, ptr @H5_libterm_g, align 1, !range !7
  %12 = trunc nuw i8 %11 to i1
  %13 = xor i1 %12, true
  %14 = select i1 %10, i1 true, i1 %13
  br i1 %14, label %15, label %.thread, !prof !9

15:                                               ; preds = %8
  %16 = tail call noalias ptr @H5FL_reg_malloc(ptr noundef nonnull @H5_H5HF_free_section_t_reg_free_list) #13
  %17 = icmp eq ptr %16, null
  br i1 %17, label %18, label %25

18:                                               ; preds = %15
  %19 = load i64, ptr @H5E_RESOURCE_g, align 8, !tbaa !18
  %20 = load i64, ptr @H5E_NOSPACE_g, align 8, !tbaa !18
  %21 = tail call i32 (ptr, ptr, i32, i64, i64, ptr, ...) @H5E_printf_stack(ptr noundef nonnull @.str, ptr noundef nonnull @__func__.H5FS__sect_node_new, i32 noundef 372, i64 noundef %19, i64 noundef %20, ptr noundef nonnull @.str.16) #13
  %22 = load i64, ptr @H5E_RESOURCE_g, align 8, !tbaa !18
  %23 = load i64, ptr @H5E_NOSPACE_g, align 8, !tbaa !18
  %24 = tail call i32 (ptr, ptr, i32, i64, i64, ptr, ...) @H5E_printf_stack(ptr noundef nonnull @.str, ptr noundef nonnull @__func__.H5HF__sect_indirect_new, i32 noundef 2097, i64 noundef %22, i64 noundef %23, ptr noundef nonnull @.str.61) #13
  br label %.thread

25:                                               ; preds = %15
  %.not = icmp eq ptr %3, null
  %26 = zext i1 %.not to i32
  store i64 %1, ptr %16, align 8, !tbaa !23
  %27 = getelementptr inbounds nuw i8, ptr %16, i64 8
  store i64 %2, ptr %27, align 8, !tbaa !24
  %28 = getelementptr inbounds nuw i8, ptr %16, i64 16
  store i32 3, ptr %28, align 8, !tbaa !20
  %29 = getelementptr inbounds nuw i8, ptr %16, i64 20
  store i32 %26, ptr %29, align 4, !tbaa !25
  %30 = getelementptr inbounds nuw i8, ptr %16, i64 24
  br i1 %.not, label %40, label %31

31:                                               ; preds = %25
  store ptr %3, ptr %30, align 8, !tbaa !26
  %32 = getelementptr inbounds nuw i8, ptr %0, i64 264
  %33 = load i32, ptr %32, align 8, !tbaa !57
  %34 = getelementptr inbounds nuw i8, ptr %3, i64 308
  %35 = load i32, ptr %34, align 4, !tbaa !82
  %36 = mul i32 %35, %33
  %37 = getelementptr inbounds nuw i8, ptr %16, i64 72
  store i32 %36, ptr %37, align 8, !tbaa !26
  %38 = tail call i32 @H5HF__iblock_incr(ptr noundef nonnull %3) #13
  %39 = icmp slt i32 %38, 0
  br i1 %39, label %51, label %42

40:                                               ; preds = %25
  store i64 %4, ptr %30, align 8, !tbaa !26
  %41 = getelementptr inbounds nuw i8, ptr %16, i64 72
  store i32 0, ptr %41, align 8, !tbaa !26
  br label %42

42:                                               ; preds = %31, %40
  %43 = getelementptr inbounds nuw i8, ptr %16, i64 32
  store i32 %5, ptr %43, align 8, !tbaa !26
  %44 = getelementptr inbounds nuw i8, ptr %16, i64 36
  store i32 %6, ptr %44, align 4, !tbaa !26
  %45 = getelementptr inbounds nuw i8, ptr %16, i64 40
  store i32 %7, ptr %45, align 8, !tbaa !26
  %46 = getelementptr inbounds nuw i8, ptr %0, i64 264
  %47 = tail call i64 @H5HF__dtable_span_size(ptr noundef nonnull %46, i32 noundef %5, i32 noundef %6, i32 noundef %7) #13
  %48 = getelementptr inbounds nuw i8, ptr %16, i64 64
  store i64 %47, ptr %48, align 8, !tbaa !26
  %49 = getelementptr inbounds nuw i8, ptr %16, i64 48
  store ptr null, ptr %49, align 8, !tbaa !26
  %50 = getelementptr inbounds nuw i8, ptr %16, i64 56
  store i32 0, ptr %50, align 8, !tbaa !26
  br label %.thread

51:                                               ; preds = %31
  %52 = load i64, ptr @H5E_HEAP_g, align 8, !tbaa !18
  %53 = load i64, ptr @H5E_CANTINC_g, align 8, !tbaa !18
  %54 = tail call i32 (ptr, ptr, i32, i64, i64, ptr, ...) @H5E_printf_stack(ptr noundef nonnull @.str, ptr noundef nonnull @__func__.H5HF__sect_indirect_new, i32 noundef 2105, i64 noundef %52, i64 noundef %53, ptr noundef nonnull @.str.2) #13
  %55 = tail call ptr @H5FL_reg_free(ptr noundef nonnull @H5_H5HF_free_section_t_reg_free_list, ptr noundef nonnull %16) #13
  br label %.thread

.thread:                                          ; preds = %18, %42, %51, %8
  %.0 = phi ptr [ null, %51 ], [ null, %8 ], [ %16, %42 ], [ null, %18 ]
  ret ptr %.0
}